target datalayout = "e-m:e-p270:32:32-p271:32:32-p272:64:64-i64:64-i128:128-f80:128-n8:16:32:64-S128"
target triple = "x86_64-pc-linux-gnu"

%class.LogTagSet = type { ptr, i64, [5 x i32], [4 x i8], %class.LogOutputList, %class.LogDecorators, ptr }
%class.LogOutputList = type <{ [6 x ptr], i32, [4 x i8] }>
%class.LogDecorators = type { i32 }
%class.NativeCallStack = type { [4 x ptr] }
%class.ThreadCritical = type { i8 }

@.str.77 = private unnamed_addr constant [58 x i8] c"Reserved and committed [0x%016lx - 0x%016lx), (%lu bytes)\00", align 1
@.str.78 = private unnamed_addr constant [38 x i8] c"Reserve and commit failed (%zu bytes)\00", align 1
@_ZN16LogTagSetMappingILN6LogTag4typeE105ELS1_78ELS1_0ELS1_0ELS1_0ELS1_0EE7_tagsetE = linkonce_odr hidden global %class.LogTagSet zeroinitializer, comdat, align 8
@_ZN10MemTracker15_tracking_levelE = external global i32, align 4

; Function Attrs: mustprogress nounwind uwtable
define linkonce_odr hidden noundef zeroext i1 @_ZNK13LogOutputList8is_levelEN8LogLevel4typeE(ptr noundef nonnull align 8 dereferenceable(52) %0, i32 noundef %1) #1 comdat align 2 {
  %3 = alloca ptr, align 8
  %4 = alloca i32, align 4
  store ptr %0, ptr %3, align 8
  store i32 %1, ptr %4, align 4
  %5 = load ptr, ptr %3, align 8
  %6 = getelementptr inbounds %class.LogOutputList, ptr %5, i32 0, i32 0
  %7 = load i32, ptr %4, align 4
  %8 = zext i32 %7 to i64
  %9 = getelementptr inbounds [6 x ptr], ptr %6, i64 0, i64 %8
  %10 = load volatile ptr, ptr %9, align 8
  %11 = icmp ne ptr %10, null
  ret i1 %11
}

; Function Attrs: mustprogress nounwind uwtable
define linkonce_odr hidden noundef zeroext i1 @_ZNK9LogTagSet8is_levelEN8LogLevel4typeE(ptr noundef nonnull align 8 dereferenceable(112) %0, i32 noundef %1) #1 comdat align 2 {
  %3 = alloca ptr, align 8
  %4 = alloca i32, align 4
  store ptr %0, ptr %3, align 8
  store i32 %1, ptr %4, align 4
  %5 = load ptr, ptr %3, align 8
  %6 = getelementptr inbounds %class.LogTagSet, ptr %5, i32 0, i32 4
  %7 = load i32, ptr %4, align 4
  %8 = call noundef zeroext i1 @_ZNK13LogOutputList8is_levelEN8LogLevel4typeE(ptr noundef nonnull align 8 dereferenceable(52) %6, i32 noundef %7)
  ret i1 %8
}

; Function Attrs: mustprogress nounwind uwtable
define linkonce_odr hidden noundef nonnull align 8 dereferenceable(112) ptr @_ZN16LogTagSetMappingILN6LogTag4typeE105ELS1_78ELS1_0ELS1_0ELS1_0ELS1_0EE6tagsetEv() #1 comdat align 2 {
  ret ptr @_ZN16LogTagSetMappingILN6LogTag4typeE105ELS1_78ELS1_0ELS1_0ELS1_0ELS1_0EE7_tagsetE
}

; Function Attrs: mustprogress nounwind uwtable
define linkonce_odr hidden noundef zeroext i1 @_ZN10MemTracker7enabledEv() #1 comdat align 2 {
  %1 = load i32, ptr @_ZN10MemTracker15_tracking_levelE, align 4
  %2 = icmp sgt i32 %1, 1
  ret i1 %2
}

; Function Attrs: mustprogress nounwind uwtable
define linkonce_odr hidden void @_ZN10MemTracker16assert_post_initEv() #1 comdat align 2 {
  ret void
}

; Function Attrs: mustprogress nounwind uwtable
define linkonce_odr hidden noundef i64 @_Z3p2iPVKv(ptr noundef %0) #1 comdat {
  %2 = alloca ptr, align 8
  store ptr %0, ptr %2, align 8
  %3 = load ptr, ptr %2, align 8
  %4 = ptrtoint ptr %3 to i64
  ret i64 %4
}

; Function Attrs: mustprogress nounwind uwtable
define linkonce_odr hidden noundef zeroext i1 @_ZN7LogImplILN6LogTag4typeE105ELS1_78ELS1_0ELS1_0ELS1_0ELS1_0EE8is_levelEN8LogLevel4typeE(i32 noundef %0) #1 comdat align 2 {
  %2 = alloca i32, align 4
  store i32 %0, ptr %2, align 4
  %3 = call noundef nonnull align 8 dereferenceable(112) ptr @_ZN16LogTagSetMappingILN6LogTag4typeE105ELS1_78ELS1_0ELS1_0ELS1_0ELS1_0EE6tagsetEv()
  %4 = load i32, ptr %2, align 4
  %5 = call noundef zeroext i1 @_ZNK9LogTagSet8is_levelEN8LogLevel4typeE(ptr noundef nonnull align 8 dereferenceable(112) %3, i32 noundef %4)
  ret i1 %5
}

; Function Attrs: mustprogress nounwind uwtable
define linkonce_odr hidden void @_ZN10MemTracker40record_virtual_memory_reserve_and_commitEPvmRK15NativeCallStack8MEMFLAGS(ptr noundef %0, i64 noundef %1, ptr noundef nonnull align 8 dereferenceable(32) %2, i8 noundef zeroext %3) #1 comdat align 2 {
  %5 = alloca ptr, align 8
  %6 = alloca i64, align 8
  %7 = alloca ptr, align 8
  %8 = alloca i8, align 1
  %9 = alloca %class.ThreadCritical, align 1
  store ptr %0, ptr %5, align 8
  store i64 %1, ptr %6, align 8
  store ptr %2, ptr %7, align 8
  store i8 %3, ptr %8, align 1
  call void @_ZN10MemTracker16assert_post_initEv()
  %10 = call noundef zeroext i1 @_ZN10MemTracker7enabledEv()
  br i1 %10, label %12, label %11

11:                                               ; preds = %4
  br label %25

12:                                               ; preds = %4
  %13 = load ptr, ptr %5, align 8
  %14 = icmp ne ptr %13, null
  br i1 %14, label %15, label %25

15:                                               ; preds = %12
  call void @_ZN14ThreadCriticalC1Ev(ptr noundef nonnull align 1 dereferenceable(1) %9)
  %16 = load ptr, ptr %5, align 8
  %17 = load i64, ptr %6, align 8
  %18 = load ptr, ptr %7, align 8
  %19 = load i8, ptr %8, align 1
  %20 = call noundef zeroext i1 @_ZN20VirtualMemoryTracker19add_reserved_regionEPhmRK15NativeCallStack8MEMFLAGS(ptr noundef %16, i64 noundef %17, ptr noundef nonnull align 8 dereferenceable(32) %18, i8 noundef zeroext %19)
  %21 = load ptr, ptr %5, align 8
  %22 = load i64, ptr %6, align 8
  %23 = load ptr, ptr %7, align 8
  %24 = call noundef zeroext i1 @_ZN20VirtualMemoryTracker20add_committed_regionEPhmRK15NativeCallStack(ptr noundef %21, i64 noundef %22, ptr noundef nonnull align 8 dereferenceable(32) %23)
  call void @_ZN14ThreadCriticalD1Ev(ptr noundef nonnull align 1 dereferenceable(1) %9) #13
  br label %25

25:                                               ; preds = %15, %12, %11
  ret void
}

; Function Attrs: mustprogress nounwind uwtable
define linkonce_odr hidden void @_ZN15NativeCallStackC2ENS_10FakeMarkerE(ptr noundef nonnull align 8 dereferenceable(32) %0, i32 noundef %1) unnamed_addr #1 comdat align 2 {
  %3 = alloca ptr, align 8
  %4 = alloca i32, align 4
  store ptr %0, ptr %3, align 8
  store i32 %1, ptr %4, align 4
  ret void
}

; Function Attrs: mustprogress nounwind uwtable
define linkonce_odr hidden noundef i32 @_ZN10MemTracker14tracking_levelEv() #1 comdat align 2 {
  %1 = load i32, ptr @_ZN10MemTracker15_tracking_levelE, align 4
  ret i32 %1
}

; Function Attrs: mustprogress nounwind uwtable
define hidden noundef ptr @_ZN2os22reserve_memory_specialEmmmPcb(i64 noundef %0, i64 noundef %1, i64 noundef %2, ptr noundef %3, i1 noundef zeroext %4) #1 align 2 {
  %6 = alloca i64, align 8
  %7 = alloca i64, align 8
  %8 = alloca i64, align 8
  %9 = alloca ptr, align 8
  %10 = alloca i8, align 1
  %11 = alloca ptr, align 8
  %12 = alloca %class.NativeCallStack, align 8
  store i64 %0, ptr %6, align 8
  store i64 %1, ptr %7, align 8
  store i64 %2, ptr %8, align 8
  store ptr %3, ptr %9, align 8
  %13 = zext i1 %4 to i8
  store i8 %13, ptr %10, align 1
  %14 = load i64, ptr %6, align 8
  %15 = load i64, ptr %7, align 8
  %16 = load i64, ptr %8, align 8
  %17 = load ptr, ptr %9, align 8
  %18 = load i8, ptr %10, align 1
  %19 = trunc i8 %18 to i1
  %20 = call noundef ptr @_ZN2os25pd_reserve_memory_specialEmmmPcb(i64 noundef %14, i64 noundef %15, i64 noundef %16, ptr noundef %17, i1 noundef zeroext %19)
  store ptr %20, ptr %11, align 8
  %21 = load ptr, ptr %11, align 8
  %22 = icmp ne ptr %21, null
  br i1 %22, label %23, label %42

23:                                               ; preds = %5
  %24 = load ptr, ptr %11, align 8
  %25 = load i64, ptr %6, align 8
  %26 = call noundef i32 @_ZN10MemTracker14tracking_levelEv()
  %27 = icmp eq i32 %26, 3
  br i1 %27, label %28, label %29

28:                                               ; preds = %23
  call void @_ZN15NativeCallStackC1Ei(ptr noundef nonnull align 8 dereferenceable(32) %12, i32 noundef 1)
  br label %30

29:                                               ; preds = %23
  call void @_ZN15NativeCallStackC2ENS_10FakeMarkerE(ptr noundef nonnull align 8 dereferenceable(32) %12, i32 noundef 0)
  br label %30

30:                                               ; preds = %29, %28
  call void @_ZN10MemTracker40record_virtual_memory_reserve_and_commitEPvmRK15NativeCallStack8MEMFLAGS(ptr noundef %24, i64 noundef %25, ptr noundef nonnull align 8 dereferenceable(32) %12, i8 noundef zeroext 27)
  %31 = call noundef zeroext i1 @_ZN7LogImplILN6LogTag4typeE105ELS1_78ELS1_0ELS1_0ELS1_0ELS1_0EE8is_levelEN8LogLevel4typeE(i32 noundef 2)
  br i1 %31, label %33, label %32

32:                                               ; preds = %30
  br label %41

33:                                               ; preds = %30
  %34 = load ptr, ptr %11, align 8
  %35 = call noundef i64 @_Z3p2iPVKv(ptr noundef %34)
  %36 = load ptr, ptr %11, align 8
  %37 = load i64, ptr %6, align 8
  %38 = getelementptr inbounds i8, ptr %36, i64 %37
  %39 = call noundef i64 @_Z3p2iPVKv(ptr noundef %38)
  %40 = load i64, ptr %6, align 8
  call void (ptr, ...) @_ZN7LogImplILN6LogTag4typeE105ELS1_78ELS1_0ELS1_0ELS1_0ELS1_0EE5writeILN8LogLevel4typeE2EEEvPKcz(ptr noundef @.str.77, i64 noundef %35, i64 noundef %39, i64 noundef %40)
  br label %41

41:                                               ; preds = %33, %32
  br label %48

42:                                               ; preds = %5
  %43 = call noundef zeroext i1 @_ZN7LogImplILN6LogTag4typeE105ELS1_78ELS1_0ELS1_0ELS1_0ELS1_0EE8is_levelEN8LogLevel4typeE(i32 noundef 3)
  br i1 %43, label %45, label %44

44:                                               ; preds = %42
  br label %47

45:                                               ; preds = %42
  %46 = load i64, ptr %6, align 8
  call void (ptr, ...) @_ZN7LogImplILN6LogTag4typeE105ELS1_78ELS1_0ELS1_0ELS1_0ELS1_0EE5writeILN8LogLevel4typeE3EEEvPKcz(ptr noundef @.str.78, i64 noundef %46)
  br label %47

47:                                               ; preds = %45, %44
  br label %48

48:                                               ; preds = %47, %41
  %49 = load ptr, ptr %11, align 8
  ret ptr %49
}