; Function Attrs: mustprogress nounwind uwtable
define hidden noundef ptr @_ZN2os22reserve_memory_specialEmmmPcb(i64 noundef %0, i64 noundef %1, i64 noundef %2, ptr noundef %3, i1 noundef zeroext %4) local_unnamed_addr #3 align 2 {
  %6 = alloca %class.ThreadCritical, align 1
  %7 = alloca %class.NativeCallStack, align 8
  %8 = tail call noundef ptr @_ZN2os25pd_reserve_memory_specialEmmmPcb(i64 noundef %0, i64 noundef %1, i64 noundef %2, ptr noundef %3, i1 noundef zeroext %4) #28
  %.not = icmp eq ptr %8, null
  br i1 %.not, label %24, label %9

9:                                                ; preds = %5
  %10 = load i32, ptr @_ZN10MemTracker15_tracking_levelE, align 4
  %11 = icmp eq i32 %10, 3
  br i1 %11, label %12, label %13

12:                                               ; preds = %9
  call void @_ZN15NativeCallStackC1Ei(ptr noundef nonnull align 8 dereferenceable(32) %7, i32 noundef 1) #28
  %.pr = load i32, ptr @_ZN10MemTracker15_tracking_levelE, align 4
  br label %13

13:                                               ; preds = %9, %12
  %14 = phi i32 [ %10, %9 ], [ %.pr, %12 ]
  call void @llvm.lifetime.start.p0(i64 1, ptr nonnull %6)
  %15 = icmp sgt i32 %14, 1
  br i1 %15, label %16, label %_ZN10MemTracker40record_virtual_memory_reserve_and_commitEPvmRK15NativeCallStack8MEMFLAGS.exit

16:                                               ; preds = %13
  call void @_ZN14ThreadCriticalC1Ev(ptr noundef nonnull align 1 dereferenceable(1) %6) #28
  %17 = call noundef zeroext i1 @_ZN20VirtualMemoryTracker19add_reserved_regionEPhmRK15NativeCallStack8MEMFLAGS(ptr noundef nonnull %8, i64 noundef %0, ptr noundef nonnull align 8 dereferenceable(32) %7, i8 noundef zeroext 27) #28
  %18 = call noundef zeroext i1 @_ZN20VirtualMemoryTracker20add_committed_regionEPhmRK15NativeCallStack(ptr noundef nonnull %8, i64 noundef %0, ptr noundef nonnull align 8 dereferenceable(32) %7) #28
  call void @_ZN14ThreadCriticalD1Ev(ptr noundef nonnull align 1 dereferenceable(1) %6) #28
  br label %_ZN10MemTracker40record_virtual_memory_reserve_and_commitEPvmRK15NativeCallStack8MEMFLAGS.exit

_ZN10MemTracker40record_virtual_memory_reserve_and_commitEPvmRK15NativeCallStack8MEMFLAGS.exit: ; preds = %13, %16
  call void @llvm.lifetime.end.p0(i64 1, ptr nonnull %6)
  %19 = load volatile ptr, ptr getelementptr inbounds (i8, ptr @_ZN16LogTagSetMappingILN6LogTag4typeE105ELS1_78ELS1_0ELS1_0ELS1_0ELS1_0EE7_tagsetE, i64 56), align 8
  %.not13 = icmp eq ptr %19, null
  br i1 %.not13, label %27, label %20

20:                                               ; preds = %_ZN10MemTracker40record_virtual_memory_reserve_and_commitEPvmRK15NativeCallStack8MEMFLAGS.exit
  %21 = ptrtoint ptr %8 to i64
  %22 = getelementptr inbounds i8, ptr %8, i64 %0
  %23 = ptrtoint ptr %22 to i64
  call void (ptr, ...) @_ZN7LogImplILN6LogTag4typeE105ELS1_78ELS1_0ELS1_0ELS1_0ELS1_0EE5writeILN8LogLevel4typeE2EEEvPKcz(ptr noundef nonnull @.str.77, i64 noundef %21, i64 noundef %23, i64 noundef %0)
  br label %27

24:                                               ; preds = %5
  %25 = load volatile ptr, ptr getelementptr inbounds (i8, ptr @_ZN16LogTagSetMappingILN6LogTag4typeE105ELS1_78ELS1_0ELS1_0ELS1_0ELS1_0EE7_tagsetE, i64 64), align 8
  %.not14 = icmp eq ptr %25, null
  br i1 %.not14, label %27, label %26

26:                                               ; preds = %24
  tail call void (ptr, ...) @_ZN7LogImplILN6LogTag4typeE105ELS1_78ELS1_0ELS1_0ELS1_0ELS1_0EE5writeILN8LogLevel4typeE3EEEvPKcz(ptr noundef nonnull @.str.78, i64 noundef %0)
  br label %27

27:                                               ; preds = %26, %24, %20, %_ZN10MemTracker40record_virtual_memory_reserve_and_commitEPvmRK15NativeCallStack8MEMFLAGS.exit
  ret ptr %8
}